target datalayout = "e-m:e-p270:32:32-p271:32:32-p272:64:64-i64:64-i128:128-f80:128-n8:16:32:64-S128"
target triple = "x86_64-pc-linux-gnu"

%struct.bn_mont_ctx_st = type { i32, %struct.bignum_st, %struct.bignum_st, %struct.bignum_st, [2 x i64], i32 }
%struct.bignum_st = type { ptr, i32, i32, i32, i32 }

@.str = private unnamed_addr constant [31 x i8] c"../openssl/crypto/bn/bn_mont.c\00", align 1

; Function Attrs: nounwind uwtable
define void @BN_MONT_CTX_init(ptr noundef %0) #0 {
  %2 = alloca ptr, align 8
  store ptr %0, ptr %2, align 8, !tbaa !8
  %3 = load ptr, ptr %2, align 8, !tbaa !8
  %4 = getelementptr inbounds nuw %struct.bn_mont_ctx_st, ptr %3, i32 0, i32 0
  store i32 0, ptr %4, align 8, !tbaa !31
  %5 = load ptr, ptr %2, align 8, !tbaa !8
  %6 = getelementptr inbounds nuw %struct.bn_mont_ctx_st, ptr %5, i32 0, i32 1
  call void @bn_init(ptr noundef %6)
  %7 = load ptr, ptr %2, align 8, !tbaa !8
  %8 = getelementptr inbounds nuw %struct.bn_mont_ctx_st, ptr %7, i32 0, i32 2
  call void @bn_init(ptr noundef %8)
  %9 = load ptr, ptr %2, align 8, !tbaa !8
  %10 = getelementptr inbounds nuw %struct.bn_mont_ctx_st, ptr %9, i32 0, i32 3
  call void @bn_init(ptr noundef %10)
  %11 = load ptr, ptr %2, align 8, !tbaa !8
  %12 = getelementptr inbounds nuw %struct.bn_mont_ctx_st, ptr %11, i32 0, i32 4
  %13 = getelementptr inbounds [2 x i64], ptr %12, i64 0, i64 1
  store i64 0, ptr %13, align 8, !tbaa !24
  %14 = load ptr, ptr %2, align 8, !tbaa !8
  %15 = getelementptr inbounds nuw %struct.bn_mont_ctx_st, ptr %14, i32 0, i32 4
  %16 = getelementptr inbounds [2 x i64], ptr %15, i64 0, i64 0
  store i64 0, ptr %16, align 8, !tbaa !24
  %17 = load ptr, ptr %2, align 8, !tbaa !8
  %18 = getelementptr inbounds nuw %struct.bn_mont_ctx_st, ptr %17, i32 0, i32 5
  store i32 0, ptr %18, align 8, !tbaa !30
  ret void
}

; Function Attrs: nounwind uwtable
define void @BN_MONT_CTX_free(ptr noundef %0) #0 {
  %2 = alloca ptr, align 8
  store ptr %0, ptr %2, align 8, !tbaa !8
  %3 = load ptr, ptr %2, align 8, !tbaa !8
  %4 = icmp eq ptr %3, null
  br i1 %4, label %5, label %6

5:                                                ; preds = %1
  br label %20

6:                                                ; preds = %1
  %7 = load ptr, ptr %2, align 8, !tbaa !8
  %8 = getelementptr inbounds nuw %struct.bn_mont_ctx_st, ptr %7, i32 0, i32 1
  call void @BN_clear_free(ptr noundef %8)
  %9 = load ptr, ptr %2, align 8, !tbaa !8
  %10 = getelementptr inbounds nuw %struct.bn_mont_ctx_st, ptr %9, i32 0, i32 2
  call void @BN_clear_free(ptr noundef %10)
  %11 = load ptr, ptr %2, align 8, !tbaa !8
  %12 = getelementptr inbounds nuw %struct.bn_mont_ctx_st, ptr %11, i32 0, i32 3
  call void @BN_clear_free(ptr noundef %12)
  %13 = load ptr, ptr %2, align 8, !tbaa !8
  %14 = getelementptr inbounds nuw %struct.bn_mont_ctx_st, ptr %13, i32 0, i32 5
  %15 = load i32, ptr %14, align 8, !tbaa !30
  %16 = and i32 %15, 1
  %17 = icmp ne i32 %16, 0
  br i1 %17, label %18, label %20

18:                                               ; preds = %6
  %19 = load ptr, ptr %2, align 8, !tbaa !8
  call void @CRYPTO_free(ptr noundef %19, ptr noundef @.str, i32 noundef 258)
  br label %20

20:                                               ; preds = %5, %18, %6
  ret void
}

; Function Attrs: nounwind uwtable
define ptr @BN_MONT_CTX_new() #0 {
  %1 = alloca ptr, align 8
  %2 = alloca ptr, align 8
  %3 = alloca i32, align 4
  call void @llvm.lifetime.start.p0(i64 8, ptr %2) #3
  %4 = call noalias ptr @CRYPTO_malloc(i64 noundef 104, ptr noundef @.str, i32 noundef 232)
  store ptr %4, ptr %2, align 8, !tbaa !8
  %5 = icmp eq ptr %4, null
  br i1 %5, label %6, label %7

6:                                                ; preds = %0
  store ptr null, ptr %1, align 8
  store i32 1, ptr %3, align 4
  br label %12

7:                                                ; preds = %0
  %8 = load ptr, ptr %2, align 8, !tbaa !8
  call void @BN_MONT_CTX_init(ptr noundef %8)
  %9 = load ptr, ptr %2, align 8, !tbaa !8
  %10 = getelementptr inbounds nuw %struct.bn_mont_ctx_st, ptr %9, i32 0, i32 5
  store i32 1, ptr %10, align 8, !tbaa !30
  %11 = load ptr, ptr %2, align 8, !tbaa !8
  store ptr %11, ptr %1, align 8
  store i32 1, ptr %3, align 4
  br label %12

12:                                               ; preds = %7, %6
  call void @llvm.lifetime.end.p0(i64 8, ptr %2) #3
  %13 = load ptr, ptr %1, align 8
  ret ptr %13
}

; Function Attrs: nounwind uwtable
define ptr @BN_MONT_CTX_set_locked(ptr noundef %0, ptr noundef %1, ptr noundef %2, ptr noundef %3) #0 {
  %5 = alloca ptr, align 8
  %6 = alloca ptr, align 8
  %7 = alloca ptr, align 8
  %8 = alloca ptr, align 8
  %9 = alloca ptr, align 8
  %10 = alloca ptr, align 8
  %11 = alloca i32, align 4
  store ptr %0, ptr %6, align 8, !tbaa !38
  store ptr %1, ptr %7, align 8, !tbaa !40
  store ptr %2, ptr %8, align 8, !tbaa !3
  store ptr %3, ptr %9, align 8, !tbaa !10
  call void @llvm.lifetime.start.p0(i64 8, ptr %10) #3
  %12 = load ptr, ptr %7, align 8, !tbaa !40
  %13 = call i32 @CRYPTO_THREAD_read_lock(ptr noundef %12)
  %14 = icmp ne i32 %13, 0
  br i1 %14, label %16, label %15

15:                                               ; preds = %4
  store ptr null, ptr %5, align 8
  store i32 1, ptr %11, align 4
  br label %59

16:                                               ; preds = %4
  %17 = load ptr, ptr %6, align 8, !tbaa !38
  %18 = load ptr, ptr %17, align 8, !tbaa !8
  store ptr %18, ptr %10, align 8, !tbaa !8
  %19 = load ptr, ptr %7, align 8, !tbaa !40
  %20 = call i32 @CRYPTO_THREAD_unlock(ptr noundef %19)
  %21 = load ptr, ptr %10, align 8, !tbaa !8
  %22 = icmp ne ptr %21, null
  br i1 %22, label %23, label %25

23:                                               ; preds = %16
  %24 = load ptr, ptr %10, align 8, !tbaa !8
  store ptr %24, ptr %5, align 8
  store i32 1, ptr %11, align 4
  br label %59

25:                                               ; preds = %16
  %26 = call ptr @BN_MONT_CTX_new()
  store ptr %26, ptr %10, align 8, !tbaa !8
  %27 = load ptr, ptr %10, align 8, !tbaa !8
  %28 = icmp eq ptr %27, null
  br i1 %28, label %29, label %30

29:                                               ; preds = %25
  store ptr null, ptr %5, align 8
  store i32 1, ptr %11, align 4
  br label %59

30:                                               ; preds = %25
  %31 = load ptr, ptr %10, align 8, !tbaa !8
  %32 = load ptr, ptr %8, align 8, !tbaa !3
  %33 = load ptr, ptr %9, align 8, !tbaa !10
  %34 = call i32 @BN_MONT_CTX_set(ptr noundef %31, ptr noundef %32, ptr noundef %33)
  %35 = icmp ne i32 %34, 0
  br i1 %35, label %38, label %36

36:                                               ; preds = %30
  %37 = load ptr, ptr %10, align 8, !tbaa !8
  call void @BN_MONT_CTX_free(ptr noundef %37)
  store ptr null, ptr %5, align 8
  store i32 1, ptr %11, align 4
  br label %59

38:                                               ; preds = %30
  %39 = load ptr, ptr %7, align 8, !tbaa !40
  %40 = call i32 @CRYPTO_THREAD_write_lock(ptr noundef %39)
  %41 = icmp ne i32 %40, 0
  br i1 %41, label %44, label %42

42:                                               ; preds = %38
  %43 = load ptr, ptr %10, align 8, !tbaa !8
  call void @BN_MONT_CTX_free(ptr noundef %43)
  store ptr null, ptr %5, align 8
  store i32 1, ptr %11, align 4
  br label %59

44:                                               ; preds = %38
  %45 = load ptr, ptr %6, align 8, !tbaa !38
  %46 = load ptr, ptr %45, align 8, !tbaa !8
  %47 = icmp ne ptr %46, null
  br i1 %47, label %48, label %52

48:                                               ; preds = %44
  %49 = load ptr, ptr %10, align 8, !tbaa !8
  call void @BN_MONT_CTX_free(ptr noundef %49)
  %50 = load ptr, ptr %6, align 8, !tbaa !38
  %51 = load ptr, ptr %50, align 8, !tbaa !8
  store ptr %51, ptr %10, align 8, !tbaa !8
  br label %55

52:                                               ; preds = %44
  %53 = load ptr, ptr %10, align 8, !tbaa !8
  %54 = load ptr, ptr %6, align 8, !tbaa !38
  store ptr %53, ptr %54, align 8, !tbaa !8
  br label %55

55:                                               ; preds = %52, %48
  %56 = load ptr, ptr %7, align 8, !tbaa !40
  %57 = call i32 @CRYPTO_THREAD_unlock(ptr noundef %56)
  %58 = load ptr, ptr %10, align 8, !tbaa !8
  store ptr %58, ptr %5, align 8
  store i32 1, ptr %11, align 4
  br label %59

59:                                               ; preds = %55, %42, %36, %29, %23, %15
  call void @llvm.lifetime.end.p0(i64 8, ptr %10) #3
  %60 = load ptr, ptr %5, align 8
  ret ptr %60
}