; Function Attrs: nounwind uwtable
define ptr @BN_MONT_CTX_set_locked(ptr noundef captures(none) %0, ptr noundef %1, ptr noundef %2, ptr noundef %3) local_unnamed_addr #0 {
  %5 = tail call i32 @CRYPTO_THREAD_read_lock(ptr noundef %1) #5
  %.not = icmp eq i32 %5, 0
  br i1 %.not, label %BN_MONT_CTX_free.exit, label %6

6:                                                ; preds = %4
  %7 = load ptr, ptr %0, align 8, !tbaa !27
  %8 = tail call i32 @CRYPTO_THREAD_unlock(ptr noundef %1) #5
  %.not23 = icmp eq ptr %7, null
  br i1 %.not23, label %9, label %BN_MONT_CTX_free.exit

9:                                                ; preds = %6
  %10 = tail call noalias ptr @CRYPTO_malloc(i64 noundef 104, ptr noundef nonnull @.str, i32 noundef 232) #5
  %11 = icmp eq ptr %10, null
  br i1 %11, label %BN_MONT_CTX_free.exit, label %12

12:                                               ; preds = %9
  store i32 0, ptr %10, align 8, !tbaa !21
  %13 = getelementptr inbounds nuw i8, ptr %10, i64 8
  tail call void @bn_init(ptr noundef nonnull %13) #5
  %14 = getelementptr inbounds nuw i8, ptr %10, i64 32
  tail call void @bn_init(ptr noundef nonnull %14) #5
  %15 = getelementptr inbounds nuw i8, ptr %10, i64 56
  tail call void @bn_init(ptr noundef nonnull %15) #5
  %16 = getelementptr inbounds nuw i8, ptr %10, i64 80
  tail call void @llvm.memset.p0.i64(ptr noundef nonnull align 8 dereferenceable(20) %16, i8 0, i64 16, i1 false)
  %17 = getelementptr inbounds nuw i8, ptr %10, i64 96
  store i32 1, ptr %17, align 8, !tbaa !22
  %18 = tail call i32 @BN_MONT_CTX_set(ptr noundef nonnull %10, ptr noundef %2, ptr noundef %3)
  %.not24 = icmp eq i32 %18, 0
  br i1 %.not24, label %19, label %23

19:                                               ; preds = %12
  tail call void @BN_clear_free(ptr noundef nonnull %13) #5
  tail call void @BN_clear_free(ptr noundef nonnull %14) #5
  tail call void @BN_clear_free(ptr noundef nonnull %15) #5
  %20 = load i32, ptr %17, align 8, !tbaa !22
  %21 = and i32 %20, 1
  %.not.i = icmp eq i32 %21, 0
  br i1 %.not.i, label %BN_MONT_CTX_free.exit, label %22

22:                                               ; preds = %19
  tail call void @CRYPTO_free(ptr noundef nonnull %10, ptr noundef nonnull @.str, i32 noundef 258) #5
  br label %BN_MONT_CTX_free.exit

23:                                               ; preds = %12
  %24 = tail call i32 @CRYPTO_THREAD_write_lock(ptr noundef %1) #5
  %.not25 = icmp eq i32 %24, 0
  br i1 %.not25, label %25, label %29

25:                                               ; preds = %23
  tail call void @BN_clear_free(ptr noundef nonnull %13) #5
  tail call void @BN_clear_free(ptr noundef nonnull %14) #5
  tail call void @BN_clear_free(ptr noundef nonnull %15) #5
  %26 = load i32, ptr %17, align 8, !tbaa !22
  %27 = and i32 %26, 1
  %.not.i27 = icmp eq i32 %27, 0
  br i1 %.not.i27, label %BN_MONT_CTX_free.exit, label %28

28:                                               ; preds = %25
  tail call void @CRYPTO_free(ptr noundef nonnull %10, ptr noundef nonnull @.str, i32 noundef 258) #5
  br label %BN_MONT_CTX_free.exit

29:                                               ; preds = %23
  %30 = load ptr, ptr %0, align 8, !tbaa !27
  %.not26 = icmp eq ptr %30, null
  br i1 %.not26, label %36, label %31

31:                                               ; preds = %29
  tail call void @BN_clear_free(ptr noundef nonnull %13) #5
  tail call void @BN_clear_free(ptr noundef nonnull %14) #5
  tail call void @BN_clear_free(ptr noundef nonnull %15) #5
  %32 = load i32, ptr %17, align 8, !tbaa !22
  %33 = and i32 %32, 1
  %.not.i29 = icmp eq i32 %33, 0
  br i1 %.not.i29, label %BN_MONT_CTX_free.exit30, label %34

34:                                               ; preds = %31
  tail call void @CRYPTO_free(ptr noundef nonnull %10, ptr noundef nonnull @.str, i32 noundef 258) #5
  br label %BN_MONT_CTX_free.exit30

BN_MONT_CTX_free.exit30:                          ; preds = %31, %34
  %35 = load ptr, ptr %0, align 8, !tbaa !27
  br label %37

36:                                               ; preds = %29
  store ptr %10, ptr %0, align 8, !tbaa !27
  br label %37

37:                                               ; preds = %36, %BN_MONT_CTX_free.exit30
  %.0 = phi ptr [ %35, %BN_MONT_CTX_free.exit30 ], [ %10, %36 ]
  %38 = tail call i32 @CRYPTO_THREAD_unlock(ptr noundef %1) #5
  br label %BN_MONT_CTX_free.exit

BN_MONT_CTX_free.exit:                            ; preds = %9, %28, %25, %22, %19, %6, %4, %37
  %.020 = phi ptr [ %.0, %37 ], [ null, %4 ], [ %7, %6 ], [ null, %19 ], [ null, %22 ], [ null, %25 ], [ null, %28 ], [ null, %9 ]
  ret ptr %.020
}